target datalayout = "e-m:e-p270:32:32-p271:32:32-p272:64:64-i64:64-i128:128-f80:128-n8:16:32:64-S128"
target triple = "x86_64-unknown-linux-gnu"

%"struct.OpenImageIO_v2_6_0::ROI" = type { i32, i32, i32, i32, i32, i32, i32, i32 }

; Function Attrs: mustprogress nounwind uwtable
define linkonce_odr noundef ptr @_ZNKSt9_Any_data9_M_accessEv(ptr noundef nonnull align 8 dereferenceable(16) %this) #4 comdat align 2 {
entry:
  %this.addr = alloca ptr, align 8
  store ptr %this, ptr %this.addr, align 8
  %this1 = load ptr, ptr %this.addr, align 8
  %arrayidx = getelementptr inbounds [16 x i8], ptr %this1, i64 0, i64 0
  ret ptr %arrayidx
}

; Function Attrs: mustprogress uwtable
define internal void @_ZSt13__invoke_implIvRZN18OpenImageIO_v2_6_0L12color_count_IjEEbRKNS0_8ImageBufEPSt6atomicIxEiPKfS9_NS0_3ROIEiEUlSA_E_JSA_EET_St14__invoke_otherOT0_DpOT1_(ptr noundef nonnull align 8 dereferenceable(40) %__f, ptr noundef nonnull align 4 dereferenceable(32) %__args) #6 {
entry:
  %__f.addr = alloca ptr, align 8
  %__args.addr = alloca ptr, align 8
  %agg.tmp = alloca %"struct.OpenImageIO_v2_6_0::ROI", align 8
  store ptr %__f, ptr %__f.addr, align 8
  store ptr %__args, ptr %__args.addr, align 8
  %0 = load ptr, ptr %__f.addr, align 8
  %1 = load ptr, ptr %__args.addr, align 8
  call void @llvm.memcpy.p0.p0.i64(ptr align 4 %agg.tmp, ptr align 4 %1, i64 32, i1 false)
  call void @_ZZN18OpenImageIO_v2_6_0L12color_count_IjEEbRKNS_8ImageBufEPSt6atomicIxEiPKfS8_NS_3ROIEiENKUlS9_E_clES9_(ptr noundef nonnull align 8 dereferenceable(40) %0, ptr noundef byval(%"struct.OpenImageIO_v2_6_0::ROI") align 8 %agg.tmp)
  ret void
}

; Function Attrs: mustprogress nounwind uwtable
define internal noundef nonnull align 8 dereferenceable(8) ptr @_ZNKSt9_Any_data9_M_accessIPZN18OpenImageIO_v2_6_0L12color_count_IjEEbRKNS1_8ImageBufEPSt6atomicIxEiPKfSA_NS1_3ROIEiEUlSB_E_EERKT_v(ptr noundef nonnull align 8 dereferenceable(16) %this) #4 align 2 {
entry:
  %this.addr = alloca ptr, align 8
  store ptr %this, ptr %this.addr, align 8
  %this1 = load ptr, ptr %this.addr, align 8
  %call = call noundef ptr @_ZNKSt9_Any_data9_M_accessEv(ptr noundef nonnull align 8 dereferenceable(16) %this1) #3
  ret ptr %call
}

; Function Attrs: mustprogress uwtable
define internal void @_ZSt10__invoke_rIvRZN18OpenImageIO_v2_6_0L12color_count_IjEEbRKNS0_8ImageBufEPSt6atomicIxEiPKfS9_NS0_3ROIEiEUlSA_E_JSA_EENSt9enable_ifIX16is_invocable_r_vIT_T0_DpT1_EESE_E4typeEOSF_DpOSG_(ptr noundef nonnull align 8 dereferenceable(40) %__fn, ptr noundef nonnull align 4 dereferenceable(32) %__args) #6 {
entry:
  %__fn.addr = alloca ptr, align 8
  %__args.addr = alloca ptr, align 8
  store ptr %__fn, ptr %__fn.addr, align 8
  store ptr %__args, ptr %__args.addr, align 8
  %0 = load ptr, ptr %__fn.addr, align 8
  %1 = load ptr, ptr %__args.addr, align 8
  call void @_ZSt13__invoke_implIvRZN18OpenImageIO_v2_6_0L12color_count_IjEEbRKNS0_8ImageBufEPSt6atomicIxEiPKfS9_NS0_3ROIEiEUlSA_E_JSA_EET_St14__invoke_otherOT0_DpOT1_(ptr noundef nonnull align 8 dereferenceable(40) %0, ptr noundef nonnull align 4 dereferenceable(32) %1)
  ret void
}

; Function Attrs: mustprogress nounwind uwtable
define internal noundef ptr @_ZNSt14_Function_base13_Base_managerIZN18OpenImageIO_v2_6_0L12color_count_IjEEbRKNS1_8ImageBufEPSt6atomicIxEiPKfSA_NS1_3ROIEiEUlSB_E_E14_M_get_pointerERKSt9_Any_data(ptr noundef nonnull align 8 dereferenceable(16) %__source) #4 align 2 {
entry:
  %__source.addr = alloca ptr, align 8
  store ptr %__source, ptr %__source.addr, align 8
  %0 = load ptr, ptr %__source.addr, align 8
  %call = call noundef nonnull align 8 dereferenceable(8) ptr @_ZNKSt9_Any_data9_M_accessIPZN18OpenImageIO_v2_6_0L12color_count_IjEEbRKNS1_8ImageBufEPSt6atomicIxEiPKfSA_NS1_3ROIEiEUlSB_E_EERKT_v(ptr noundef nonnull align 8 dereferenceable(16) %0) #3
  %1 = load ptr, ptr %call, align 8
  ret ptr %1
}

; Function Attrs: mustprogress uwtable
define internal void @_ZNSt17_Function_handlerIFvN18OpenImageIO_v2_6_03ROIEEZNS0_L12color_count_IjEEbRKNS0_8ImageBufEPSt6atomicIxEiPKfSB_S1_iEUlS1_E_E9_M_invokeERKSt9_Any_dataOS1_(ptr noundef nonnull align 8 dereferenceable(16) %__functor, ptr noundef nonnull align 4 dereferenceable(32) %__args) #6 align 2 {
entry:
  %__functor.addr = alloca ptr, align 8
  %__args.addr = alloca ptr, align 8
  store ptr %__functor, ptr %__functor.addr, align 8
  store ptr %__args, ptr %__args.addr, align 8
  %0 = load ptr, ptr %__functor.addr, align 8
  %call = call noundef ptr @_ZNSt14_Function_base13_Base_managerIZN18OpenImageIO_v2_6_0L12color_count_IjEEbRKNS1_8ImageBufEPSt6atomicIxEiPKfSA_NS1_3ROIEiEUlSB_E_E14_M_get_pointerERKSt9_Any_data(ptr noundef nonnull align 8 dereferenceable(16) %0) #3
  %1 = load ptr, ptr %__args.addr, align 8
  call void @_ZSt10__invoke_rIvRZN18OpenImageIO_v2_6_0L12color_count_IjEEbRKNS0_8ImageBufEPSt6atomicIxEiPKfS9_NS0_3ROIEiEUlSA_E_JSA_EENSt9enable_ifIX16is_invocable_r_vIT_T0_DpT1_EESE_E4typeEOSF_DpOSG_(ptr noundef nonnull align 8 dereferenceable(40) %call, ptr noundef nonnull align 4 dereferenceable(32) %1)
  ret void
}